; Function Attrs: inlinehint mustprogress uwtable
define internal void @_ZZN9grpc_core11CallFilters12StackBuilder14AddOwnedObjectINS_12_GLOBAL__N_129ServiceConfigChannelArgFilterEEEvSt10unique_ptrIT_St14default_deleteIS6_EEENUlPvE_8__invokeESA_(ptr noundef %0) #25 align 2 personality ptr @__gxx_personality_v0 {
  %2 = icmp eq ptr %0, null
  br i1 %2, label %_ZZN9grpc_core11CallFilters12StackBuilder14AddOwnedObjectINS_12_GLOBAL__N_129ServiceConfigChannelArgFilterEEEvSt10unique_ptrIT_St14default_deleteIS6_EEENKUlPvE_clESA_.exit, label %3

3:                                                ; preds = %1
  %4 = getelementptr inbounds nuw i8, ptr %0, i64 8
  %5 = load ptr, ptr %4, align 8, !tbaa !80
  %.not.i.i.i = icmp eq ptr %5, null
  br i1 %.not.i.i.i, label %_ZN9grpc_core12_GLOBAL__N_129ServiceConfigChannelArgFilterD2Ev.exit.i, label %6

6:                                                ; preds = %3
  %7 = getelementptr inbounds nuw i8, ptr %5, i64 8
  %8 = atomicrmw sub ptr %7, i64 1 acq_rel, align 8
  %9 = icmp eq i64 %8, 1
  br i1 %9, label %10, label %_ZN9grpc_core12_GLOBAL__N_129ServiceConfigChannelArgFilterD2Ev.exit.i, !prof !83

10:                                               ; preds = %6
  %11 = load ptr, ptr %5, align 8, !tbaa !21
  %12 = getelementptr inbounds nuw i8, ptr %11, i64 8
  %13 = load ptr, ptr %12, align 8
  tail call void %13(ptr noundef nonnull align 8 dereferenceable(16) %5) #30
  br label %_ZN9grpc_core12_GLOBAL__N_129ServiceConfigChannelArgFilterD2Ev.exit.i

_ZN9grpc_core12_GLOBAL__N_129ServiceConfigChannelArgFilterD2Ev.exit.i: ; preds = %10, %6, %3
  tail call void @_ZdlPvm(ptr noundef nonnull %0, i64 noundef 16) #33
  br label %_ZZN9grpc_core11CallFilters12StackBuilder14AddOwnedObjectINS_12_GLOBAL__N_129ServiceConfigChannelArgFilterEEEvSt10unique_ptrIT_St14default_deleteIS6_EEENKUlPvE_clESA_.exit

_ZZN9grpc_core11CallFilters12StackBuilder14AddOwnedObjectINS_12_GLOBAL__N_129ServiceConfigChannelArgFilterEEEvSt10unique_ptrIT_St14default_deleteIS6_EEENKUlPvE_clESA_.exit: ; preds = %1, %_ZN9grpc_core12_GLOBAL__N_129ServiceConfigChannelArgFilterD2Ev.exit.i
  ret void
}